; Function Attrs: nounwind sspstrong uwtable
define internal noundef i32 @env_update_block_i(i64 noundef %0, i64 noundef %1, i64 %2) #0 {
  %4 = alloca i64, align 8
  call void @llvm.lifetime.start.p0(i64 8, ptr nonnull %4)
  store i64 %0, ptr %4, align 8, !tbaa !7
  %5 = call i64 @rb_string_value(ptr noundef nonnull %4) #28
  %6 = load volatile i64, ptr %4, align 8, !tbaa !7
  %7 = call fastcc ptr @get_env_cstr(i64 noundef %6, ptr noundef nonnull @.str.118)
  %8 = call fastcc noundef i64 @getenv_with_lock(ptr noundef %7)
  call void @llvm.lifetime.end.p0(i64 8, ptr nonnull %4)
  %9 = icmp eq i64 %8, 4
  br i1 %9, label %12, label %10

10:                                               ; preds = %3
  %11 = call i64 (i32, ...) @rb_yield_values(i32 noundef 3, i64 noundef %0, i64 noundef %8, i64 noundef %1) #28
  br label %12

12:                                               ; preds = %10, %3
  %.0 = phi i64 [ %1, %3 ], [ %11, %10 ]
  %13 = call fastcc i64 @env_aset(i64 noundef %0, i64 noundef %.0)
  ret i32 0
}